; Function Attrs: nounwind uwtable
define internal void @PredictorSub13_SSE2(ptr noundef %0, ptr noundef %1, i32 noundef %2, ptr noalias noundef %3) #1 {
  %.not49 = icmp slt i32 %2, 2
  br i1 %.not49, label %._crit_edge, label %.lr.ph.preheader

.lr.ph.preheader:                                 ; preds = %4
  %5 = zext nneg i32 %2 to i64
  br label %.lr.ph

.lr.ph:                                           ; preds = %.lr.ph.preheader, %.lr.ph
  %indvars.iv51 = phi i64 [ 0, %.lr.ph.preheader ], [ %indvars.iv.next52, %.lr.ph ]
  %indvars.iv = phi i64 [ 2, %.lr.ph.preheader ], [ %indvars.iv.next, %.lr.ph ]
  %6 = add nsw i64 %indvars.iv51, -1
  %7 = getelementptr inbounds i32, ptr %0, i64 %6
  %8 = load i64, ptr %7, align 1, !tbaa !7
  %9 = insertelement <2 x i64> poison, i64 %8, i64 0
  %10 = getelementptr inbounds nuw i32, ptr %0, i64 %indvars.iv51
  %11 = load i64, ptr %10, align 1, !tbaa !7
  %12 = insertelement <2 x i64> poison, i64 %11, i64 0
  %13 = getelementptr inbounds nuw i32, ptr %1, i64 %indvars.iv51
  %14 = load i64, ptr %13, align 1, !tbaa !7
  %15 = insertelement <2 x i64> poison, i64 %14, i64 0
  %16 = getelementptr inbounds i32, ptr %1, i64 %6
  %17 = load i64, ptr %16, align 1, !tbaa !7
  %18 = insertelement <2 x i64> poison, i64 %17, i64 0
  %19 = bitcast <2 x i64> %9 to <16 x i8>
  %20 = shufflevector <16 x i8> %19, <16 x i8> <i8 0, i8 0, i8 0, i8 0, i8 0, i8 0, i8 0, i8 0, i8 poison, i8 poison, i8 poison, i8 poison, i8 poison, i8 poison, i8 poison, i8 poison>, <16 x i32> <i32 0, i32 16, i32 1, i32 17, i32 2, i32 18, i32 3, i32 19, i32 4, i32 20, i32 5, i32 21, i32 6, i32 22, i32 7, i32 23>
  %21 = bitcast <2 x i64> %15 to <16 x i8>
  %22 = shufflevector <16 x i8> %21, <16 x i8> <i8 0, i8 0, i8 0, i8 0, i8 0, i8 0, i8 0, i8 0, i8 poison, i8 poison, i8 poison, i8 poison, i8 poison, i8 poison, i8 poison, i8 poison>, <16 x i32> <i32 0, i32 16, i32 1, i32 17, i32 2, i32 18, i32 3, i32 19, i32 4, i32 20, i32 5, i32 21, i32 6, i32 22, i32 7, i32 23>
  %23 = bitcast <2 x i64> %18 to <16 x i8>
  %24 = shufflevector <16 x i8> %23, <16 x i8> <i8 0, i8 0, i8 0, i8 0, i8 0, i8 0, i8 0, i8 0, i8 poison, i8 poison, i8 poison, i8 poison, i8 poison, i8 poison, i8 poison, i8 poison>, <16 x i32> <i32 0, i32 16, i32 1, i32 17, i32 2, i32 18, i32 3, i32 19, i32 4, i32 20, i32 5, i32 21, i32 6, i32 22, i32 7, i32 23>
  %25 = bitcast <16 x i8> %22 to <8 x i16>
  %26 = bitcast <16 x i8> %20 to <8 x i16>
  %27 = add nuw nsw <8 x i16> %25, %26
  %28 = lshr <8 x i16> %27, splat (i16 1)
  %29 = bitcast <16 x i8> %24 to <8 x i16>
  %30 = sub nsw <8 x i16> %28, %29
  %31 = icmp samesign ult <8 x i16> %28, %29
  %.neg = zext <8 x i1> %31 to <8 x i16>
  %32 = add nsw <8 x i16> %30, %.neg
  %33 = ashr <8 x i16> %32, splat (i16 1)
  %34 = add nsw <8 x i16> %33, %28
  %35 = tail call <16 x i8> @llvm.x86.sse2.packuswb.128(<8 x i16> %34, <8 x i16> poison)
  %36 = bitcast <2 x i64> %12 to <16 x i8>
  %37 = sub <16 x i8> %36, %35
  %38 = bitcast <16 x i8> %37 to <2 x i64>
  %39 = getelementptr inbounds nuw i32, ptr %3, i64 %indvars.iv51
  %40 = extractelement <2 x i64> %38, i64 0
  store i64 %40, ptr %39, align 1, !tbaa !7
  %indvars.iv.next = add nuw nsw i64 %indvars.iv, 2
  %.not = icmp samesign ugt i64 %indvars.iv.next, %5
  %indvars.iv.next52 = add nuw nsw i64 %indvars.iv51, 2
  br i1 %.not, label %._crit_edge.loopexit, label %.lr.ph, !llvm.loop !50

._crit_edge.loopexit:                             ; preds = %.lr.ph
  %41 = trunc nuw nsw i64 %indvars.iv to i32
  br label %._crit_edge

._crit_edge:                                      ; preds = %._crit_edge.loopexit, %4
  %.0.lcssa = phi i32 [ 0, %4 ], [ %41, %._crit_edge.loopexit ]
  %.not47 = icmp eq i32 %.0.lcssa, %2
  br i1 %.not47, label %49, label %42

42:                                               ; preds = %._crit_edge
  %43 = load ptr, ptr getelementptr inbounds nuw (i8, ptr @VP8LPredictorsSub_C, i64 104), align 8, !tbaa !3
  %44 = zext nneg i32 %.0.lcssa to i64
  %45 = getelementptr inbounds nuw i32, ptr %0, i64 %44
  %46 = getelementptr inbounds nuw i32, ptr %1, i64 %44
  %47 = sub nsw i32 %2, %.0.lcssa
  %48 = getelementptr inbounds nuw i32, ptr %3, i64 %44
  tail call void %43(ptr noundef %45, ptr noundef %46, i32 noundef %47, ptr noundef %48) #8
  br label %49

49:                                               ; preds = %42, %._crit_edge
  ret void
}